; Function Attrs: null_pointer_is_valid sspstrong uwtable
define internal i32 @fileexp_dissect_fetchdata_rqst(ptr noundef %0, i32 noundef %1, ptr noundef %2, ptr noundef %3, ptr noundef %4, ptr noundef %5) #0 {
  %7 = alloca i32, align 4
  %8 = alloca i32, align 4
  %9 = alloca i32, align 4
  call void @llvm.lifetime.start.p0(i64 4, ptr nonnull %7) #4
  call void @llvm.lifetime.start.p0(i64 4, ptr nonnull %8) #4
  call void @llvm.lifetime.start.p0(i64 4, ptr nonnull %9) #4
  %10 = getelementptr inbounds nuw i8, ptr %4, i64 25
  %11 = load i8, ptr %10, align 1, !range !6, !noundef !7
  %12 = trunc nuw i8 %11 to i1
  br i1 %12, label %28, label %13

13:                                               ; preds = %6
  %14 = tail call i32 @dissect_ndr_pointer(ptr noundef %0, i32 noundef %1, ptr noundef %2, ptr noundef %3, ptr noundef %4, ptr noundef %5, ptr noundef nonnull @dissect_afsFid, i32 noundef 1, ptr noundef nonnull @.str.376, i32 noundef -1)
  %15 = tail call i32 @dissect_ndr_pointer(ptr noundef %0, i32 noundef %14, ptr noundef %2, ptr noundef %3, ptr noundef %4, ptr noundef %5, ptr noundef nonnull @dissect_minvvp, i32 noundef 1, ptr noundef nonnull @.str.377, i32 noundef -1)
  %16 = load i32, ptr @hf_fileexp_position_high, align 4
  %17 = call i32 @dissect_ndr_uint32(ptr noundef %0, i32 noundef %15, ptr noundef %2, ptr noundef %3, ptr noundef %4, ptr noundef %5, i32 noundef %16, ptr noundef nonnull %7)
  %18 = load i32, ptr @hf_fileexp_position_low, align 4
  %19 = call i32 @dissect_ndr_uint32(ptr noundef %0, i32 noundef %17, ptr noundef %2, ptr noundef %3, ptr noundef %4, ptr noundef %5, i32 noundef %18, ptr noundef nonnull %8)
  %20 = load i32, ptr @hf_fileexp_length, align 4
  %21 = call i32 @dissect_ndr_uint32(ptr noundef %0, i32 noundef %19, ptr noundef %2, ptr noundef %3, ptr noundef %4, ptr noundef %5, i32 noundef %20, ptr noundef nonnull %9)
  %22 = getelementptr inbounds nuw i8, ptr %2, i64 8
  %23 = load ptr, ptr %22, align 8
  %24 = load i32, ptr %7, align 4
  %25 = load i32, ptr %8, align 4
  %26 = load i32, ptr %9, align 4
  call void (ptr, i32, ptr, ...) @col_append_fstr(ptr noundef %23, i32 noundef 25, ptr noundef nonnull @.str.414, i32 noundef %24, i32 noundef %25, i32 noundef %26)
  %27 = call i32 @dissect_ndr_pointer(ptr noundef %0, i32 noundef %21, ptr noundef %2, ptr noundef %3, ptr noundef %4, ptr noundef %5, ptr noundef nonnull @dissect_afsFlags, i32 noundef 1, ptr noundef nonnull @.str.378, i32 noundef -1)
  br label %28

28:                                               ; preds = %6, %13
  %.0 = phi i32 [ %27, %13 ], [ %1, %6 ]
  call void @llvm.lifetime.end.p0(i64 4, ptr nonnull %9) #4
  call void @llvm.lifetime.end.p0(i64 4, ptr nonnull %8) #4
  call void @llvm.lifetime.end.p0(i64 4, ptr nonnull %7) #4
  ret i32 %.0
}